; Function Attrs: nounwind uwtable
define hidden range(i32 0, 2) i32 @CRYPTO_gcm128_finish(ptr noundef %0, ptr noundef %1, i64 noundef %2) local_unnamed_addr #0 {
  %4 = getelementptr inbounds nuw i8, ptr %0, i64 48
  %5 = load i64, ptr %4, align 8, !tbaa !12
  %6 = shl i64 %5, 3
  %7 = getelementptr inbounds nuw i8, ptr %0, i64 56
  %8 = load i64, ptr %7, align 8, !tbaa !12
  %9 = shl i64 %8, 3
  %10 = getelementptr inbounds nuw i8, ptr %0, i64 352
  %11 = load ptr, ptr %10, align 8, !tbaa !16
  %12 = getelementptr inbounds nuw i8, ptr %0, i64 368
  %13 = load i32, ptr %12, align 8, !tbaa !24
  %.not = icmp eq i32 %13, 0
  br i1 %.not, label %14, label %17

14:                                               ; preds = %3
  %15 = getelementptr inbounds nuw i8, ptr %0, i64 372
  %16 = load i32, ptr %15, align 4, !tbaa !23
  %.not37 = icmp eq i32 %16, 0
  br i1 %.not37, label %20, label %17

17:                                               ; preds = %14, %3
  %18 = getelementptr inbounds nuw i8, ptr %0, i64 64
  %19 = getelementptr inbounds nuw i8, ptr %0, i64 96
  tail call void %11(ptr noundef nonnull %18, ptr noundef nonnull %19) #6
  br label %20

20:                                               ; preds = %14, %17
  %21 = tail call i64 asm "bswapq $0", "=r,0,~{dirflag},~{fpsr},~{flags}"(i64 %6) #7, !srcloc !48
  %22 = tail call i64 asm "bswapq $0", "=r,0,~{dirflag},~{fpsr},~{flags}"(i64 %9) #7, !srcloc !49
  %23 = getelementptr inbounds nuw i8, ptr %0, i64 64
  %24 = load i64, ptr %23, align 8, !tbaa !12
  %25 = xor i64 %24, %21
  store i64 %25, ptr %23, align 8, !tbaa !12
  %26 = getelementptr inbounds nuw i8, ptr %0, i64 72
  %27 = load i64, ptr %26, align 8, !tbaa !12
  %28 = xor i64 %27, %22
  store i64 %28, ptr %26, align 8, !tbaa !12
  %29 = getelementptr inbounds nuw i8, ptr %0, i64 96
  tail call void %11(ptr noundef nonnull %23, ptr noundef nonnull %29) #6
  %30 = getelementptr inbounds nuw i8, ptr %0, i64 32
  %31 = load i64, ptr %30, align 8, !tbaa !12
  %32 = load i64, ptr %23, align 8, !tbaa !12
  %33 = xor i64 %32, %31
  store i64 %33, ptr %23, align 8, !tbaa !12
  %34 = getelementptr inbounds nuw i8, ptr %0, i64 40
  %35 = load i64, ptr %34, align 8, !tbaa !12
  %36 = load i64, ptr %26, align 8, !tbaa !12
  %37 = xor i64 %36, %35
  store i64 %37, ptr %26, align 8, !tbaa !12
  %38 = icmp ne ptr %1, null
  %39 = icmp ult i64 %2, 17
  %or.cond = and i1 %38, %39
  br i1 %or.cond, label %40, label %44

40:                                               ; preds = %20
  %41 = tail call i32 @CRYPTO_memcmp(ptr noundef nonnull %23, ptr noundef nonnull %1, i64 noundef %2) #6
  %42 = icmp eq i32 %41, 0
  %43 = zext i1 %42 to i32
  br label %44

44:                                               ; preds = %20, %40
  %.0 = phi i32 [ %43, %40 ], [ 0, %20 ]
  ret i32 %.0
}